target datalayout = "e-m:e-p270:32:32-p271:32:32-p272:64:64-i64:64-i128:128-f80:128-n8:16:32:64-S128"
target triple = "x86_64-pc-linux-gnu"

%struct._PyRWMutex = type { i64 }

; Function Attrs: nounwind uwtable
define internal i64 @rwmutex_reader_count(i64 noundef %0) #0 {
  %2 = alloca i64, align 8
  store i64 %0, ptr %2, align 8, !tbaa !9
  %3 = load i64, ptr %2, align 8, !tbaa !9
  %4 = lshr i64 %3, 2
  ret i64 %4
}

; Function Attrs: inlinehint nounwind uwtable
define internal i64 @_Py_atomic_add_uintptr(ptr noundef %0, i64 noundef %1) #2 {
  %3 = alloca ptr, align 8
  %4 = alloca i64, align 8
  %5 = alloca i64, align 8
  %6 = alloca i64, align 8
  store ptr %0, ptr %3, align 8, !tbaa !30
  store i64 %1, ptr %4, align 8, !tbaa !9
  %7 = load ptr, ptr %3, align 8, !tbaa !30
  %8 = load i64, ptr %4, align 8, !tbaa !9
  store i64 %8, ptr %5, align 8, !tbaa !9
  %9 = load i64, ptr %5, align 8
  %10 = atomicrmw add ptr %7, i64 %9 seq_cst, align 8
  store i64 %10, ptr %6, align 8
  %11 = load i64, ptr %6, align 8, !tbaa !9
  ret i64 %11
}

; Function Attrs: nounwind uwtable
define dso_local void @_PyRWMutex_RUnlock(ptr noundef %0) #0 {
  %2 = alloca ptr, align 8
  %3 = alloca i64, align 8
  %4 = alloca i32, align 4
  store ptr %0, ptr %2, align 8, !tbaa !25
  call void @llvm.lifetime.start.p0(i64 8, ptr %3) #7
  %5 = load ptr, ptr %2, align 8, !tbaa !25
  %6 = getelementptr inbounds nuw %struct._PyRWMutex, ptr %5, i32 0, i32 0
  %7 = call i64 @_Py_atomic_add_uintptr(ptr noundef %6, i64 noundef -4)
  store i64 %7, ptr %3, align 8, !tbaa !9
  %8 = load i64, ptr %3, align 8, !tbaa !9
  %9 = sub i64 %8, 4
  store i64 %9, ptr %3, align 8, !tbaa !9
  %10 = load i64, ptr %3, align 8, !tbaa !9
  %11 = call i64 @rwmutex_reader_count(i64 noundef %10)
  %12 = icmp eq i64 %11, 0
  br i1 %12, label %13, label %20

13:                                               ; preds = %1
  %14 = load i64, ptr %3, align 8, !tbaa !9
  %15 = and i64 %14, 2
  %16 = icmp ne i64 %15, 0
  br i1 %16, label %17, label %20

17:                                               ; preds = %13
  %18 = load ptr, ptr %2, align 8, !tbaa !25
  %19 = getelementptr inbounds nuw %struct._PyRWMutex, ptr %18, i32 0, i32 0
  call void @_PyParkingLot_UnparkAll(ptr noundef %19)
  store i32 1, ptr %4, align 4
  br label %21

20:                                               ; preds = %13, %1
  store i32 0, ptr %4, align 4
  br label %21

21:                                               ; preds = %20, %17
  call void @llvm.lifetime.end.p0(i64 8, ptr %3) #7
  %22 = load i32, ptr %4, align 4
  switch i32 %22, label %24 [
    i32 0, label %23
    i32 1, label %23
  ]

23:                                               ; preds = %21, %21
  ret void

24:                                               ; preds = %21
  unreachable
}