; Function Attrs: nounwind uwtable
define dso_local void @_PyRWMutex_RUnlock(ptr noundef %0) local_unnamed_addr #0 {
  %2 = atomicrmw add ptr %0, i64 -4 seq_cst, align 8
  %3 = and i64 %2, -2
  %or.cond.not = icmp eq i64 %3, 6
  br i1 %or.cond.not, label %4, label %5

4:                                                ; preds = %1
  tail call void @_PyParkingLot_UnparkAll(ptr noundef %0) #8
  br label %5

5:                                                ; preds = %1, %4
  ret void
}